target datalayout = "e-m:e-p270:32:32-p271:32:32-p272:64:64-i64:64-i128:128-f80:128-n8:16:32:64-S128"
target triple = "x86_64-pc-linux-gnu"

%class.anon = type { i8 }
%"class.gmx::APIError" = type { %"class.gmx::GromacsException" }
%"class.gmx::GromacsException" = type { %"class.std::exception", %"class.std::shared_ptr" }
%"class.std::exception" = type { ptr }
%"class.std::shared_ptr" = type { %"class.std::__shared_ptr" }
%"class.std::__shared_ptr" = type { ptr, %"class.std::__shared_count" }
%"class.std::__shared_count" = type { ptr }
%"class.gmx::ExceptionInitializer" = type { %"class.std::__cxx11::basic_string", %"class.std::vector.3" }
%"class.std::__cxx11::basic_string" = type { %"struct.std::__cxx11::basic_string<char>::_Alloc_hider", i64, %union.anon }
%"struct.std::__cxx11::basic_string<char>::_Alloc_hider" = type { ptr }
%union.anon = type { i64, [8 x i8] }
%"class.std::vector.3" = type { %"struct.std::_Vector_base.4" }
%"struct.std::_Vector_base.4" = type { %"struct.std::_Vector_base<std::__exception_ptr::exception_ptr, std::allocator<std::__exception_ptr::exception_ptr>>::_Vector_impl" }
%"struct.std::_Vector_base<std::__exception_ptr::exception_ptr, std::allocator<std::__exception_ptr::exception_ptr>>::_Vector_impl" = type { %"struct.std::_Vector_base<std::__exception_ptr::exception_ptr, std::allocator<std::__exception_ptr::exception_ptr>>::_Vector_impl_data" }
%"struct.std::_Vector_base<std::__exception_ptr::exception_ptr, std::allocator<std::__exception_ptr::exception_ptr>>::_Vector_impl_data" = type { ptr, ptr, ptr }
%"class.gmx::ExceptionInfo" = type { %"class.gmx::internal::IExceptionInfo", %"struct.gmx::ThrowLocation" }
%"class.gmx::internal::IExceptionInfo" = type { ptr }
%"struct.gmx::ThrowLocation" = type <{ ptr, ptr, i32, [4 x i8] }>

@.str = private unnamed_addr constant [55 x i8] c"Data module not compatible with data object properties\00", align 1
@.str.1 = private unnamed_addr constant [140 x i8] c"generated/home/dtcxzyw/WorkSpace/Projects/compilers/llvm-opt-benchmark/bench/gromacs/gromacs/src/gromacs/analysisdata/datamodulemanager.cpp\00", align 1
@_ZTIN3gmx8APIErrorE = external constant ptr
@.str.2 = private unnamed_addr constant [6 x i8] c"false\00", align 1
@.str.3 = private unnamed_addr constant [34 x i8] c"Invalid data property enumeration\00", align 1
@_ZTVN3gmx8internal14IExceptionInfoE = available_externally unnamed_addr constant { [4 x ptr] } { [4 x ptr] [ptr null, ptr @_ZTIN3gmx8internal14IExceptionInfoE, ptr @_ZN3gmx8internal14IExceptionInfoD1Ev, ptr @_ZN3gmx8internal14IExceptionInfoD0Ev] }, align 8
@_ZTVN3gmx8APIErrorE = external unnamed_addr constant { [6 x ptr] }, align 8

; Function Attrs: mustprogress nounwind uwtable
define linkonce_odr void @_ZN3gmx8internal14IExceptionInfoC2Ev(ptr noundef nonnull align 8 dereferenceable(8) %0) unnamed_addr #0 comdat align 2 {
  %2 = alloca ptr, align 8
  store ptr %0, ptr %2, align 8, !tbaa !68
  %3 = load ptr, ptr %2, align 8
  store ptr getelementptr inbounds inrange(-16, 16) ({ [4 x ptr] }, ptr @_ZTVN3gmx8internal14IExceptionInfoE, i32 0, i32 0, i32 2), ptr %3, align 8, !tbaa !43
  ret void
}

; Function Attrs: mustprogress nounwind uwtable
define linkonce_odr void @_ZN3gmx13ExceptionInfoINS_22ExceptionInfoLocation_ENS_13ThrowLocationEEC2ERKS2_(ptr noundef nonnull align 8 dereferenceable(32) %0, ptr noundef nonnull align 8 dereferenceable(20) %1) unnamed_addr #0 comdat align 2 {
  %3 = alloca ptr, align 8
  %4 = alloca ptr, align 8
  store ptr %0, ptr %3, align 8, !tbaa !51
  store ptr %1, ptr %4, align 8, !tbaa !57
  %5 = load ptr, ptr %3, align 8
  call void @_ZN3gmx8internal14IExceptionInfoC2Ev(ptr noundef nonnull align 8 dereferenceable(8) %5) #17
  store ptr getelementptr inbounds inrange(-16, 16) ({ [4 x ptr] }, ptr @_ZTVN3gmx13ExceptionInfoINS_22ExceptionInfoLocation_ENS_13ThrowLocationEEE, i32 0, i32 0, i32 2), ptr %5, align 8, !tbaa !43
  %6 = getelementptr inbounds nuw %"class.gmx::ExceptionInfo", ptr %5, i32 0, i32 1
  %7 = load ptr, ptr %4, align 8, !tbaa !57
  call void @llvm.memcpy.p0.p0.i64(ptr align 8 %6, ptr align 8 %7, i64 24, i1 false), !tbaa.struct !63
  ret void
}

; Function Attrs: mustprogress nounwind uwtable
define linkonce_odr void @_ZN3gmx13ThrowLocationC2EPKcS2_i(ptr noundef nonnull align 8 dereferenceable(20) %0, ptr noundef %1, ptr noundef %2, i32 noundef %3) unnamed_addr #0 comdat align 2 {
  %5 = alloca ptr, align 8
  %6 = alloca ptr, align 8
  %7 = alloca ptr, align 8
  %8 = alloca i32, align 4
  store ptr %0, ptr %5, align 8, !tbaa !57
  store ptr %1, ptr %6, align 8, !tbaa !55
  store ptr %2, ptr %7, align 8, !tbaa !55
  store i32 %3, ptr %8, align 4, !tbaa !45
  %9 = load ptr, ptr %5, align 8
  %10 = getelementptr inbounds nuw %"struct.gmx::ThrowLocation", ptr %9, i32 0, i32 0
  %11 = load ptr, ptr %6, align 8, !tbaa !55
  store ptr %11, ptr %10, align 8, !tbaa !59
  %12 = getelementptr inbounds nuw %"struct.gmx::ThrowLocation", ptr %9, i32 0, i32 1
  %13 = load ptr, ptr %7, align 8, !tbaa !55
  store ptr %13, ptr %12, align 8, !tbaa !61
  %14 = getelementptr inbounds nuw %"struct.gmx::ThrowLocation", ptr %9, i32 0, i32 2
  %15 = load i32, ptr %8, align 4, !tbaa !45
  store i32 %15, ptr %14, align 8, !tbaa !62
  ret void
}

; Function Attrs: mustprogress uwtable
define linkonce_odr void @_ZN3gmx8APIErrorC2ERKNS_20ExceptionInitializerE(ptr noundef nonnull align 8 dereferenceable(24) %0, ptr noundef nonnull align 8 dereferenceable(56) %1) unnamed_addr #2 comdat align 2 {
  %3 = alloca ptr, align 8
  %4 = alloca ptr, align 8
  store ptr %0, ptr %3, align 8, !tbaa !49
  store ptr %1, ptr %4, align 8, !tbaa !53
  %5 = load ptr, ptr %3, align 8
  %6 = load ptr, ptr %4, align 8, !tbaa !53
  call void @_ZN3gmx16GromacsExceptionC2ERKNS_20ExceptionInitializerE(ptr noundef nonnull align 8 dereferenceable(24) %5, ptr noundef nonnull align 8 dereferenceable(56) %6)
  store ptr getelementptr inbounds inrange(-16, 32) ({ [6 x ptr] }, ptr @_ZTVN3gmx8APIErrorE, i32 0, i32 0, i32 2), ptr %5, align 8, !tbaa !43
  ret void
}

; Function Attrs: inlinehint mustprogress uwtable
define internal void @"_ZZN3gmx25AnalysisDataModuleManager4Impl19checkModulePropertyERKNS_19IAnalysisDataModuleENS0_12DataPropertyEbENK3$_0clEv"(ptr noundef nonnull align 1 dereferenceable(1) %0) #4 align 2 {
  %2 = alloca ptr, align 8
  store ptr %0, ptr %2, align 8, !tbaa !48
  call void @_ZN3gmx8internal13assertHandlerEPKcS2_S2_S2_i(ptr noundef @.str.2, ptr noundef @.str.3, ptr noundef @"__PRETTY_FUNCTION__._ZZN3gmx25AnalysisDataModuleManager4Impl19checkModulePropertyERKNS_19IAnalysisDataModuleENS0_12DataPropertyEbENK3$_0clEv", ptr noundef @.str.1, i32 noundef 200) #18
  unreachable
}

; Function Attrs: mustprogress uwtable
define void @_ZN3gmx25AnalysisDataModuleManager4Impl19checkModulePropertyERKNS_19IAnalysisDataModuleENS0_12DataPropertyEb(ptr noundef nonnull align 8 dereferenceable(8) %0, i32 noundef %1, i1 noundef zeroext %2) #2 align 2 personality ptr @__gxx_personality_v0 {
  %4 = alloca ptr, align 8
  %5 = alloca i32, align 4
  %6 = alloca i8, align 1
  %7 = alloca i8, align 1
  %8 = alloca i32, align 4
  %9 = alloca %class.anon, align 1
  %10 = alloca %"class.gmx::APIError", align 8
  %11 = alloca %"class.gmx::ExceptionInitializer", align 8
  %12 = alloca ptr, align 8
  %13 = alloca i32, align 4
  %14 = alloca %"class.gmx::ExceptionInfo", align 8
  %15 = alloca %"struct.gmx::ThrowLocation", align 8
  %16 = alloca i1, align 1
  store ptr %0, ptr %4, align 8, !tbaa !38
  store i32 %1, ptr %5, align 4, !tbaa !40
  %17 = zext i1 %2 to i8
  store i8 %17, ptr %6, align 1, !tbaa !42
  call void @llvm.lifetime.start.p0(i64 1, ptr %7) #17
  store i8 1, ptr %7, align 1, !tbaa !42
  call void @llvm.lifetime.start.p0(i64 4, ptr %8) #17
  %18 = load ptr, ptr %4, align 8, !tbaa !38
  %19 = load ptr, ptr %18, align 8, !tbaa !43
  %20 = getelementptr inbounds ptr, ptr %19, i64 2
  %21 = load ptr, ptr %20, align 8
  %22 = call noundef i32 %21(ptr noundef nonnull align 8 dereferenceable(8) %18)
  store i32 %22, ptr %8, align 4, !tbaa !45
  %23 = load i32, ptr %5, align 4, !tbaa !40
  switch i32 %23, label %58 [
    i32 0, label %24
    i32 1, label %33
    i32 2, label %42
  ]

24:                                               ; preds = %3
  %25 = load i8, ptr %6, align 1, !tbaa !42, !range !46, !noundef !47
  %26 = trunc i8 %25 to i1
  br i1 %26, label %27, label %32

27:                                               ; preds = %24
  %28 = load i32, ptr %8, align 4, !tbaa !45
  %29 = and i32 %28, 16
  %30 = icmp ne i32 %29, 0
  br i1 %30, label %32, label %31

31:                                               ; preds = %27
  store i8 0, ptr %7, align 1, !tbaa !42
  br label %32

32:                                               ; preds = %31, %27, %24
  br label %59

33:                                               ; preds = %3
  %34 = load i8, ptr %6, align 1, !tbaa !42, !range !46, !noundef !47
  %35 = trunc i8 %34 to i1
  br i1 %35, label %36, label %41

36:                                               ; preds = %33
  %37 = load i32, ptr %8, align 4, !tbaa !45
  %38 = and i32 %37, 4
  %39 = icmp ne i32 %38, 0
  br i1 %39, label %41, label %40

40:                                               ; preds = %36
  store i8 0, ptr %7, align 1, !tbaa !42
  br label %41

41:                                               ; preds = %40, %36, %33
  br label %59

42:                                               ; preds = %3
  %43 = load i8, ptr %6, align 1, !tbaa !42, !range !46, !noundef !47
  %44 = trunc i8 %43 to i1
  br i1 %44, label %45, label %49

45:                                               ; preds = %42
  %46 = load i32, ptr %8, align 4, !tbaa !45
  %47 = and i32 %46, 1
  %48 = icmp ne i32 %47, 0
  br i1 %48, label %49, label %56

49:                                               ; preds = %45, %42
  %50 = load i8, ptr %6, align 1, !tbaa !42, !range !46, !noundef !47
  %51 = trunc i8 %50 to i1
  br i1 %51, label %57, label %52

52:                                               ; preds = %49
  %53 = load i32, ptr %8, align 4, !tbaa !45
  %54 = and i32 %53, 2
  %55 = icmp ne i32 %54, 0
  br i1 %55, label %56, label %57

56:                                               ; preds = %52, %45
  store i8 0, ptr %7, align 1, !tbaa !42
  br label %57

57:                                               ; preds = %56, %52, %49
  br label %59

58:                                               ; preds = %3
  call void @llvm.lifetime.start.p0(i64 1, ptr %9) #17
  call void @"_ZZN3gmx25AnalysisDataModuleManager4Impl19checkModulePropertyERKNS_19IAnalysisDataModuleENS0_12DataPropertyEbENK3$_0clEv"(ptr noundef nonnull align 1 dereferenceable(1) %9)
  call void @llvm.lifetime.end.p0(i64 1, ptr %9) #17
  br label %59

59:                                               ; preds = %58, %57, %41, %32
  %60 = load i8, ptr %7, align 1, !tbaa !42, !range !46, !noundef !47
  %61 = trunc i8 %60 to i1
  br i1 %61, label %91, label %62

62:                                               ; preds = %59
  store i1 true, ptr %16, align 1
  %63 = call ptr @__cxa_allocate_exception(i64 24) #17
  call void @llvm.lifetime.start.p0(i64 56, ptr %11) #17
  invoke void @_ZN3gmx20ExceptionInitializerC2EPKc(ptr noundef nonnull align 8 dereferenceable(56) %11, ptr noundef @.str)
          to label %64 unwind label %69

64:                                               ; preds = %62
  invoke void @_ZN3gmx8APIErrorC2ERKNS_20ExceptionInitializerE(ptr noundef nonnull align 8 dereferenceable(24) %10, ptr noundef nonnull align 8 dereferenceable(56) %11)
          to label %65 unwind label %73

65:                                               ; preds = %64
  call void @llvm.lifetime.start.p0(i64 32, ptr %14) #17
  call void @llvm.lifetime.start.p0(i64 24, ptr %15) #17
  invoke void @_ZN3gmx13ThrowLocationC2EPKcS2_i(ptr noundef nonnull align 8 dereferenceable(20) %15, ptr noundef @__PRETTY_FUNCTION__._ZN3gmx25AnalysisDataModuleManager4Impl19checkModulePropertyERKNS_19IAnalysisDataModuleENS0_12DataPropertyEb, ptr noundef @.str.1, i32 noundef 204)
          to label %66 unwind label %77

66:                                               ; preds = %65
  invoke void @_ZN3gmx13ExceptionInfoINS_22ExceptionInfoLocation_ENS_13ThrowLocationEEC2ERKS2_(ptr noundef nonnull align 8 dereferenceable(32) %14, ptr noundef nonnull align 8 dereferenceable(20) %15)
          to label %67 unwind label %77

67:                                               ; preds = %66
  invoke void @_ZN3gmxlsINS_8APIErrorENS_22ExceptionInfoLocation_ENS_13ThrowLocationEEENSt9enable_ifIXsr3stdE12is_base_of_vINS_16GromacsExceptionET_EES6_E4typeES6_RKNS_13ExceptionInfoIT0_T1_EE(ptr dead_on_unwind writable sret(%"class.gmx::APIError") align 8 %63, ptr noundef %10, ptr noundef nonnull align 8 dereferenceable(32) %14)
          to label %68 unwind label %81

68:                                               ; preds = %67
  store i1 false, ptr %16, align 1
  invoke void @__cxa_throw(ptr %63, ptr @_ZTIN3gmx8APIErrorE, ptr @_ZN3gmx16GromacsExceptionD2Ev) #18
          to label %97 unwind label %81

69:                                               ; preds = %62
  %70 = landingpad { ptr, i32 }
          cleanup
  %71 = extractvalue { ptr, i32 } %70, 0
  store ptr %71, ptr %12, align 8
  %72 = extractvalue { ptr, i32 } %70, 1
  store i32 %72, ptr %13, align 4
  br label %87

73:                                               ; preds = %64
  %74 = landingpad { ptr, i32 }
          cleanup
  %75 = extractvalue { ptr, i32 } %74, 0
  store ptr %75, ptr %12, align 8
  %76 = extractvalue { ptr, i32 } %74, 1
  store i32 %76, ptr %13, align 4
  br label %86

77:                                               ; preds = %66, %65
  %78 = landingpad { ptr, i32 }
          cleanup
  %79 = extractvalue { ptr, i32 } %78, 0
  store ptr %79, ptr %12, align 8
  %80 = extractvalue { ptr, i32 } %78, 1
  store i32 %80, ptr %13, align 4
  br label %85

81:                                               ; preds = %68, %67
  %82 = landingpad { ptr, i32 }
          cleanup
  %83 = extractvalue { ptr, i32 } %82, 0
  store ptr %83, ptr %12, align 8
  %84 = extractvalue { ptr, i32 } %82, 1
  store i32 %84, ptr %13, align 4
  call void @_ZN3gmx8internal14IExceptionInfoD2Ev(ptr noundef nonnull align 8 dereferenceable(32) %14) #17
  br label %85

85:                                               ; preds = %81, %77
  call void @llvm.lifetime.end.p0(i64 24, ptr %15) #17
  call void @llvm.lifetime.end.p0(i64 32, ptr %14) #17
  call void @_ZN3gmx16GromacsExceptionD2Ev(ptr noundef nonnull align 8 dereferenceable(24) %10) #17
  br label %86

86:                                               ; preds = %85, %73
  call void @_ZN3gmx20ExceptionInitializerD2Ev(ptr noundef nonnull align 8 dereferenceable(56) %11) #17
  br label %87

87:                                               ; preds = %86, %69
  call void @llvm.lifetime.end.p0(i64 56, ptr %11) #17
  %88 = load i1, ptr %16, align 1
  br i1 %88, label %89, label %90

89:                                               ; preds = %87
  call void @__cxa_free_exception(ptr %63) #17
  br label %90

90:                                               ; preds = %89, %87
  call void @llvm.lifetime.end.p0(i64 4, ptr %8) #17
  call void @llvm.lifetime.end.p0(i64 1, ptr %7) #17
  br label %92

91:                                               ; preds = %59
  call void @llvm.lifetime.end.p0(i64 4, ptr %8) #17
  call void @llvm.lifetime.end.p0(i64 1, ptr %7) #17
  ret void

92:                                               ; preds = %90
  %93 = load ptr, ptr %12, align 8
  %94 = load i32, ptr %13, align 4
  %95 = insertvalue { ptr, i32 } poison, ptr %93, 0
  %96 = insertvalue { ptr, i32 } %95, i32 %94, 1
  resume { ptr, i32 } %96

97:                                               ; preds = %68
  unreachable
}