; Function Attrs: mustprogress uwtable
define void @_ZN3gmx25AnalysisDataModuleManager4Impl19checkModulePropertyERKNS_19IAnalysisDataModuleENS0_12DataPropertyEb(ptr noundef nonnull align 8 dereferenceable(8) %0, i32 noundef %1, i1 noundef zeroext %2) local_unnamed_addr #2 align 2 personality ptr @__gxx_personality_v0 {
  %4 = alloca %"class.gmx::APIError", align 8
  %5 = alloca %"class.gmx::ExceptionInitializer", align 8
  %6 = alloca %"class.gmx::ExceptionInfo", align 8
  %7 = load ptr, ptr %0, align 8, !tbaa !21
  %8 = getelementptr inbounds nuw i8, ptr %7, i64 16
  %9 = load ptr, ptr %8, align 8
  %10 = tail call noundef i32 %9(ptr noundef nonnull align 8 dereferenceable(8) %0)
  switch i32 %1, label %19 [
    i32 0, label %11
    i32 1, label %13
    i32 2, label %15
  ]

11:                                               ; preds = %3
  %12 = and i32 %10, 16
  %.not20 = icmp eq i32 %12, 0
  %or.cond = and i1 %2, %.not20
  br i1 %or.cond, label %20, label %.critedge

13:                                               ; preds = %3
  %14 = and i32 %10, 4
  %.not19 = icmp eq i32 %14, 0
  %or.cond23 = and i1 %2, %.not19
  br i1 %or.cond23, label %20, label %.critedge

15:                                               ; preds = %3
  %16 = and i32 %10, 1
  %.not = icmp eq i32 %16, 0
  %or.cond24 = and i1 %2, %.not
  br i1 %or.cond24, label %20, label %17

17:                                               ; preds = %15
  %18 = and i32 %10, 2
  %.not18 = icmp eq i32 %18, 0
  %or.cond25 = or i1 %2, %.not18
  br i1 %or.cond25, label %.critedge, label %20

19:                                               ; preds = %3
  tail call void @_ZN3gmx8internal13assertHandlerEPKcS2_S2_S2_i(ptr noundef nonnull @.str.2, ptr noundef nonnull @.str.3, ptr noundef nonnull @"__PRETTY_FUNCTION__._ZZN3gmx25AnalysisDataModuleManager4Impl19checkModulePropertyERKNS_19IAnalysisDataModuleENS0_12DataPropertyEbENK3$_0clEv", ptr noundef nonnull @.str.1, i32 noundef 200) #20
  unreachable

20:                                               ; preds = %15, %17, %13, %11
  %21 = tail call ptr @__cxa_allocate_exception(i64 24) #21
  call void @llvm.lifetime.start.p0(i64 56, ptr nonnull %5) #21
  invoke void @_ZN3gmx20ExceptionInitializerC2EPKc(ptr noundef nonnull align 8 dereferenceable(56) %5, ptr noundef nonnull @.str)
          to label %22 unwind label %.thread

22:                                               ; preds = %20
  invoke void @_ZN3gmx16GromacsExceptionC2ERKNS_20ExceptionInitializerE(ptr noundef nonnull align 8 dereferenceable(24) %4, ptr noundef nonnull align 8 dereferenceable(56) %5)
          to label %23 unwind label %.thread31

23:                                               ; preds = %22
  store ptr getelementptr inbounds nuw inrange(-16, 32) (i8, ptr @_ZTVN3gmx8APIErrorE, i64 16), ptr %4, align 8, !tbaa !21
  call void @llvm.lifetime.start.p0(i64 32, ptr nonnull %6) #21
  store ptr getelementptr inbounds nuw inrange(-16, 16) (i8, ptr @_ZTVN3gmx13ExceptionInfoINS_22ExceptionInfoLocation_ENS_13ThrowLocationEEE, i64 16), ptr %6, align 8, !tbaa !21
  %24 = getelementptr inbounds nuw i8, ptr %6, i64 8
  store ptr @__PRETTY_FUNCTION__._ZN3gmx25AnalysisDataModuleManager4Impl19checkModulePropertyERKNS_19IAnalysisDataModuleENS0_12DataPropertyEb, ptr %24, align 8, !tbaa !23
  %.sroa.4.0..sroa_idx = getelementptr inbounds nuw i8, ptr %6, i64 16
  store ptr @.str.1, ptr %.sroa.4.0..sroa_idx, align 8, !tbaa !23
  %.sroa.5.0..sroa_idx = getelementptr inbounds nuw i8, ptr %6, i64 24
  store i32 204, ptr %.sroa.5.0..sroa_idx, align 8, !tbaa !25
  invoke void @_ZN3gmxlsINS_8APIErrorENS_22ExceptionInfoLocation_ENS_13ThrowLocationEEENSt9enable_ifIXsr3stdE12is_base_of_vINS_16GromacsExceptionET_EES6_E4typeES6_RKNS_13ExceptionInfoIT0_T1_EE(ptr dead_on_unwind writable sret(%"class.gmx::APIError") align 8 %21, ptr noundef nonnull %4, ptr noundef nonnull align 8 dereferenceable(32) %6)
          to label %25 unwind label %28

25:                                               ; preds = %23
  invoke void @__cxa_throw(ptr %21, ptr nonnull @_ZTIN3gmx8APIErrorE, ptr nonnull @_ZN3gmx16GromacsExceptionD2Ev) #20
          to label %32 unwind label %28

.thread:                                          ; preds = %20
  %26 = landingpad { ptr, i32 }
          cleanup
  br label %.sink.split

.thread31:                                        ; preds = %22
  %27 = landingpad { ptr, i32 }
          cleanup
  call void @_ZN3gmx20ExceptionInitializerD2Ev(ptr noundef nonnull align 8 dereferenceable(56) %5) #21
  br label %.sink.split

28:                                               ; preds = %23, %25
  %.0 = phi i1 [ false, %25 ], [ true, %23 ]
  %29 = landingpad { ptr, i32 }
          cleanup
  call void @_ZN3gmx8internal14IExceptionInfoD2Ev(ptr noundef nonnull align 8 dereferenceable(32) %6) #21
  call void @llvm.lifetime.end.p0(i64 32, ptr nonnull %6) #21
  call void @_ZN3gmx16GromacsExceptionD2Ev(ptr noundef nonnull align 8 dereferenceable(24) %4) #21
  call void @_ZN3gmx20ExceptionInitializerD2Ev(ptr noundef nonnull align 8 dereferenceable(56) %5) #21
  call void @llvm.lifetime.end.p0(i64 56, ptr nonnull %5) #21
  br i1 %.0, label %30, label %31

.sink.split:                                      ; preds = %.thread, %.thread31
  %.pn.pn30.ph = phi { ptr, i32 } [ %27, %.thread31 ], [ %26, %.thread ]
  call void @llvm.lifetime.end.p0(i64 56, ptr nonnull %5) #21
  br label %30

30:                                               ; preds = %.sink.split, %28
  %.pn.pn30 = phi { ptr, i32 } [ %29, %28 ], [ %.pn.pn30.ph, %.sink.split ]
  call void @__cxa_free_exception(ptr %21) #21
  br label %31

31:                                               ; preds = %30, %28
  %.pn.pn29 = phi { ptr, i32 } [ %.pn.pn30, %30 ], [ %29, %28 ]
  resume { ptr, i32 } %.pn.pn29

.critedge:                                        ; preds = %17, %13, %11
  ret void

32:                                               ; preds = %25
  unreachable
}